; Function Attrs: mustprogress nounwind uwtable
define internal void @_ZN7rocksdb12_GLOBAL__N_18PosixEnv17JoinThreadsOnExitD2Ev(ptr nocapture noundef nonnull readonly align 8 dereferenceable(8) %this) unnamed_addr #7 align 2 personality ptr @__gxx_personality_v0 {
entry:
  %0 = load ptr, ptr %this, align 8
  %threads_to_join_ = getelementptr inbounds i8, ptr %0, i64 184
  %1 = load ptr, ptr %threads_to_join_, align 8
  %2 = load ptr, ptr %1, align 8
  %_M_finish.i = getelementptr inbounds i8, ptr %1, i64 8
  %3 = load ptr, ptr %_M_finish.i, align 8
  %cmp.i.not6 = icmp eq ptr %2, %3
  br i1 %cmp.i.not6, label %for.body9.preheader, label %for.body

for.body:                                         ; preds = %entry, %for.inc
  %__begin3.sroa.0.07 = phi ptr [ %incdec.ptr.i, %for.inc ], [ %2, %entry ]
  %4 = load i64, ptr %__begin3.sroa.0.07, align 8
  %call6 = invoke i32 @pthread_join(i64 noundef %4, ptr noundef null)
          to label %for.inc unwind label %terminate.lpad.loopexit.split-lp

for.inc:                                          ; preds = %for.body
  %incdec.ptr.i = getelementptr inbounds i8, ptr %__begin3.sroa.0.07, i64 8
  %cmp.i.not = icmp eq ptr %incdec.ptr.i, %3
  br i1 %cmp.i.not, label %for.body9.preheader, label %for.body

for.body9.preheader:                              ; preds = %for.inc, %entry
  br label %for.body9

for.body9:                                        ; preds = %for.body9.preheader, %for.inc13
  %indvars.iv = phi i64 [ %indvars.iv.next, %for.inc13 ], [ 0, %for.body9.preheader ]
  %5 = load ptr, ptr %this, align 8
  %thread_pools_ = getelementptr inbounds i8, ptr %5, i64 168
  %6 = load ptr, ptr %thread_pools_, align 8
  %7 = load ptr, ptr %6, align 8
  %add.ptr.i = getelementptr inbounds %"class.rocksdb::ThreadPoolImpl", ptr %7, i64 %indvars.iv
  %vtable = load ptr, ptr %add.ptr.i, align 8
  %vfn = getelementptr inbounds i8, ptr %vtable, i64 16
  %8 = load ptr, ptr %vfn, align 8
  invoke void %8(ptr noundef nonnull align 8 dereferenceable(16) %add.ptr.i)
          to label %for.inc13 unwind label %terminate.lpad.loopexit

for.inc13:                                        ; preds = %for.body9
  %indvars.iv.next = add nuw nsw i64 %indvars.iv, 1
  %exitcond.not = icmp eq i64 %indvars.iv.next, 4
  br i1 %exitcond.not, label %for.end14, label %for.body9, !llvm.loop !7

for.end14:                                        ; preds = %for.inc13
  ret void

terminate.lpad.loopexit:                          ; preds = %for.body9
  %lpad.loopexit = landingpad { ptr, i32 }
          catch ptr null
  br label %terminate.lpad

terminate.lpad.loopexit.split-lp:                 ; preds = %for.body
  %lpad.loopexit.split-lp = landingpad { ptr, i32 }
          catch ptr null
  br label %terminate.lpad

terminate.lpad:                                   ; preds = %terminate.lpad.loopexit.split-lp, %terminate.lpad.loopexit
  %lpad.phi = phi { ptr, i32 } [ %lpad.loopexit, %terminate.lpad.loopexit ], [ %lpad.loopexit.split-lp, %terminate.lpad.loopexit.split-lp ]
  %9 = extractvalue { ptr, i32 } %lpad.phi, 0
  tail call void @__clang_call_terminate(ptr %9) #25
  unreachable
}